target datalayout = "e-m:e-p270:32:32-p271:32:32-p272:64:64-i64:64-i128:128-f80:128-n8:16:32:64-S128"
target triple = "x86_64-pc-linux-gnu"

%"class.pxrInternal_v0_24__pxrReserved__::GfMatrix4d" = type { %"class.pxrInternal_v0_24__pxrReserved__::GfMatrixData" }
%"class.pxrInternal_v0_24__pxrReserved__::GfMatrixData" = type { [16 x double] }
%"class.pxrInternal_v0_24__pxrReserved__::GfMatrix4f" = type { %"class.pxrInternal_v0_24__pxrReserved__::GfMatrixData.0" }
%"class.pxrInternal_v0_24__pxrReserved__::GfMatrixData.0" = type { [16 x float] }

; Function Attrs: mustprogress nounwind uwtable
define linkonce_odr noundef ptr @_ZNK32pxrInternal_v0_24__pxrReserved__12GfMatrixDataIfLi4ELi4EEixEi(ptr noundef nonnull align 4 dereferenceable(64) %0, i32 noundef %1) #2 comdat align 2 {
  %3 = alloca ptr, align 8
  %4 = alloca i32, align 4
  store ptr %0, ptr %3, align 8
  store i32 %1, ptr %4, align 4
  %5 = load ptr, ptr %3, align 8
  %6 = getelementptr inbounds nuw %"class.pxrInternal_v0_24__pxrReserved__::GfMatrixData.0", ptr %5, i32 0, i32 0
  %7 = getelementptr inbounds [16 x float], ptr %6, i64 0, i64 0
  %8 = load i32, ptr %4, align 4
  %9 = mul nsw i32 %8, 4
  %10 = sext i32 %9 to i64
  %11 = getelementptr inbounds float, ptr %7, i64 %10
  ret ptr %11
}

; Function Attrs: mustprogress nounwind uwtable
define linkonce_odr noundef ptr @_ZNK32pxrInternal_v0_24__pxrReserved__12GfMatrixDataIdLi4ELi4EEixEi(ptr noundef nonnull align 8 dereferenceable(128) %0, i32 noundef %1) #2 comdat align 2 {
  %3 = alloca ptr, align 8
  %4 = alloca i32, align 4
  store ptr %0, ptr %3, align 8
  store i32 %1, ptr %4, align 4
  %5 = load ptr, ptr %3, align 8
  %6 = getelementptr inbounds nuw %"class.pxrInternal_v0_24__pxrReserved__::GfMatrixData", ptr %5, i32 0, i32 0
  %7 = getelementptr inbounds [16 x double], ptr %6, i64 0, i64 0
  %8 = load i32, ptr %4, align 4
  %9 = mul nsw i32 %8, 4
  %10 = sext i32 %9 to i64
  %11 = getelementptr inbounds double, ptr %7, i64 %10
  ret ptr %11
}

; Function Attrs: mustprogress uwtable
define noundef zeroext i1 @_ZNK32pxrInternal_v0_24__pxrReserved__10GfMatrix4deqERKNS_10GfMatrix4fE(ptr noundef nonnull align 8 dereferenceable(128) %0, ptr noundef nonnull align 4 dereferenceable(64) %1) #0 align 2 {
  %3 = alloca ptr, align 8
  %4 = alloca ptr, align 8
  store ptr %0, ptr %3, align 8
  store ptr %1, ptr %4, align 8
  %5 = load ptr, ptr %3, align 8
  %6 = getelementptr inbounds nuw %"class.pxrInternal_v0_24__pxrReserved__::GfMatrix4d", ptr %5, i32 0, i32 0
  %7 = call noundef ptr @_ZNK32pxrInternal_v0_24__pxrReserved__12GfMatrixDataIdLi4ELi4EEixEi(ptr noundef nonnull align 8 dereferenceable(128) %6, i32 noundef 0)
  %8 = getelementptr inbounds double, ptr %7, i64 0
  %9 = load double, ptr %8, align 8
  %10 = load ptr, ptr %4, align 8
  %11 = getelementptr inbounds nuw %"class.pxrInternal_v0_24__pxrReserved__::GfMatrix4f", ptr %10, i32 0, i32 0
  %12 = call noundef ptr @_ZNK32pxrInternal_v0_24__pxrReserved__12GfMatrixDataIfLi4ELi4EEixEi(ptr noundef nonnull align 4 dereferenceable(64) %11, i32 noundef 0)
  %13 = getelementptr inbounds float, ptr %12, i64 0
  %14 = load float, ptr %13, align 4
  %15 = fpext float %14 to double
  %16 = fcmp oeq double %9, %15
  br i1 %16, label %17, label %197

17:                                               ; preds = %2
  %18 = getelementptr inbounds nuw %"class.pxrInternal_v0_24__pxrReserved__::GfMatrix4d", ptr %5, i32 0, i32 0
  %19 = call noundef ptr @_ZNK32pxrInternal_v0_24__pxrReserved__12GfMatrixDataIdLi4ELi4EEixEi(ptr noundef nonnull align 8 dereferenceable(128) %18, i32 noundef 0)
  %20 = getelementptr inbounds double, ptr %19, i64 1
  %21 = load double, ptr %20, align 8
  %22 = load ptr, ptr %4, align 8
  %23 = getelementptr inbounds nuw %"class.pxrInternal_v0_24__pxrReserved__::GfMatrix4f", ptr %22, i32 0, i32 0
  %24 = call noundef ptr @_ZNK32pxrInternal_v0_24__pxrReserved__12GfMatrixDataIfLi4ELi4EEixEi(ptr noundef nonnull align 4 dereferenceable(64) %23, i32 noundef 0)
  %25 = getelementptr inbounds float, ptr %24, i64 1
  %26 = load float, ptr %25, align 4
  %27 = fpext float %26 to double
  %28 = fcmp oeq double %21, %27
  br i1 %28, label %29, label %197

29:                                               ; preds = %17
  %30 = getelementptr inbounds nuw %"class.pxrInternal_v0_24__pxrReserved__::GfMatrix4d", ptr %5, i32 0, i32 0
  %31 = call noundef ptr @_ZNK32pxrInternal_v0_24__pxrReserved__12GfMatrixDataIdLi4ELi4EEixEi(ptr noundef nonnull align 8 dereferenceable(128) %30, i32 noundef 0)
  %32 = getelementptr inbounds double, ptr %31, i64 2
  %33 = load double, ptr %32, align 8
  %34 = load ptr, ptr %4, align 8
  %35 = getelementptr inbounds nuw %"class.pxrInternal_v0_24__pxrReserved__::GfMatrix4f", ptr %34, i32 0, i32 0
  %36 = call noundef ptr @_ZNK32pxrInternal_v0_24__pxrReserved__12GfMatrixDataIfLi4ELi4EEixEi(ptr noundef nonnull align 4 dereferenceable(64) %35, i32 noundef 0)
  %37 = getelementptr inbounds float, ptr %36, i64 2
  %38 = load float, ptr %37, align 4
  %39 = fpext float %38 to double
  %40 = fcmp oeq double %33, %39
  br i1 %40, label %41, label %197

41:                                               ; preds = %29
  %42 = getelementptr inbounds nuw %"class.pxrInternal_v0_24__pxrReserved__::GfMatrix4d", ptr %5, i32 0, i32 0
  %43 = call noundef ptr @_ZNK32pxrInternal_v0_24__pxrReserved__12GfMatrixDataIdLi4ELi4EEixEi(ptr noundef nonnull align 8 dereferenceable(128) %42, i32 noundef 0)
  %44 = getelementptr inbounds double, ptr %43, i64 3
  %45 = load double, ptr %44, align 8
  %46 = load ptr, ptr %4, align 8
  %47 = getelementptr inbounds nuw %"class.pxrInternal_v0_24__pxrReserved__::GfMatrix4f", ptr %46, i32 0, i32 0
  %48 = call noundef ptr @_ZNK32pxrInternal_v0_24__pxrReserved__12GfMatrixDataIfLi4ELi4EEixEi(ptr noundef nonnull align 4 dereferenceable(64) %47, i32 noundef 0)
  %49 = getelementptr inbounds float, ptr %48, i64 3
  %50 = load float, ptr %49, align 4
  %51 = fpext float %50 to double
  %52 = fcmp oeq double %45, %51
  br i1 %52, label %53, label %197

53:                                               ; preds = %41
  %54 = getelementptr inbounds nuw %"class.pxrInternal_v0_24__pxrReserved__::GfMatrix4d", ptr %5, i32 0, i32 0
  %55 = call noundef ptr @_ZNK32pxrInternal_v0_24__pxrReserved__12GfMatrixDataIdLi4ELi4EEixEi(ptr noundef nonnull align 8 dereferenceable(128) %54, i32 noundef 1)
  %56 = getelementptr inbounds double, ptr %55, i64 0
  %57 = load double, ptr %56, align 8
  %58 = load ptr, ptr %4, align 8
  %59 = getelementptr inbounds nuw %"class.pxrInternal_v0_24__pxrReserved__::GfMatrix4f", ptr %58, i32 0, i32 0
  %60 = call noundef ptr @_ZNK32pxrInternal_v0_24__pxrReserved__12GfMatrixDataIfLi4ELi4EEixEi(ptr noundef nonnull align 4 dereferenceable(64) %59, i32 noundef 1)
  %61 = getelementptr inbounds float, ptr %60, i64 0
  %62 = load float, ptr %61, align 4
  %63 = fpext float %62 to double
  %64 = fcmp oeq double %57, %63
  br i1 %64, label %65, label %197

65:                                               ; preds = %53
  %66 = getelementptr inbounds nuw %"class.pxrInternal_v0_24__pxrReserved__::GfMatrix4d", ptr %5, i32 0, i32 0
  %67 = call noundef ptr @_ZNK32pxrInternal_v0_24__pxrReserved__12GfMatrixDataIdLi4ELi4EEixEi(ptr noundef nonnull align 8 dereferenceable(128) %66, i32 noundef 1)
  %68 = getelementptr inbounds double, ptr %67, i64 1
  %69 = load double, ptr %68, align 8
  %70 = load ptr, ptr %4, align 8
  %71 = getelementptr inbounds nuw %"class.pxrInternal_v0_24__pxrReserved__::GfMatrix4f", ptr %70, i32 0, i32 0
  %72 = call noundef ptr @_ZNK32pxrInternal_v0_24__pxrReserved__12GfMatrixDataIfLi4ELi4EEixEi(ptr noundef nonnull align 4 dereferenceable(64) %71, i32 noundef 1)
  %73 = getelementptr inbounds float, ptr %72, i64 1
  %74 = load float, ptr %73, align 4
  %75 = fpext float %74 to double
  %76 = fcmp oeq double %69, %75
  br i1 %76, label %77, label %197

77:                                               ; preds = %65
  %78 = getelementptr inbounds nuw %"class.pxrInternal_v0_24__pxrReserved__::GfMatrix4d", ptr %5, i32 0, i32 0
  %79 = call noundef ptr @_ZNK32pxrInternal_v0_24__pxrReserved__12GfMatrixDataIdLi4ELi4EEixEi(ptr noundef nonnull align 8 dereferenceable(128) %78, i32 noundef 1)
  %80 = getelementptr inbounds double, ptr %79, i64 2
  %81 = load double, ptr %80, align 8
  %82 = load ptr, ptr %4, align 8
  %83 = getelementptr inbounds nuw %"class.pxrInternal_v0_24__pxrReserved__::GfMatrix4f", ptr %82, i32 0, i32 0
  %84 = call noundef ptr @_ZNK32pxrInternal_v0_24__pxrReserved__12GfMatrixDataIfLi4ELi4EEixEi(ptr noundef nonnull align 4 dereferenceable(64) %83, i32 noundef 1)
  %85 = getelementptr inbounds float, ptr %84, i64 2
  %86 = load float, ptr %85, align 4
  %87 = fpext float %86 to double
  %88 = fcmp oeq double %81, %87
  br i1 %88, label %89, label %197

89:                                               ; preds = %77
  %90 = getelementptr inbounds nuw %"class.pxrInternal_v0_24__pxrReserved__::GfMatrix4d", ptr %5, i32 0, i32 0
  %91 = call noundef ptr @_ZNK32pxrInternal_v0_24__pxrReserved__12GfMatrixDataIdLi4ELi4EEixEi(ptr noundef nonnull align 8 dereferenceable(128) %90, i32 noundef 1)
  %92 = getelementptr inbounds double, ptr %91, i64 3
  %93 = load double, ptr %92, align 8
  %94 = load ptr, ptr %4, align 8
  %95 = getelementptr inbounds nuw %"class.pxrInternal_v0_24__pxrReserved__::GfMatrix4f", ptr %94, i32 0, i32 0
  %96 = call noundef ptr @_ZNK32pxrInternal_v0_24__pxrReserved__12GfMatrixDataIfLi4ELi4EEixEi(ptr noundef nonnull align 4 dereferenceable(64) %95, i32 noundef 1)
  %97 = getelementptr inbounds float, ptr %96, i64 3
  %98 = load float, ptr %97, align 4
  %99 = fpext float %98 to double
  %100 = fcmp oeq double %93, %99
  br i1 %100, label %101, label %197

101:                                              ; preds = %89
  %102 = getelementptr inbounds nuw %"class.pxrInternal_v0_24__pxrReserved__::GfMatrix4d", ptr %5, i32 0, i32 0
  %103 = call noundef ptr @_ZNK32pxrInternal_v0_24__pxrReserved__12GfMatrixDataIdLi4ELi4EEixEi(ptr noundef nonnull align 8 dereferenceable(128) %102, i32 noundef 2)
  %104 = getelementptr inbounds double, ptr %103, i64 0
  %105 = load double, ptr %104, align 8
  %106 = load ptr, ptr %4, align 8
  %107 = getelementptr inbounds nuw %"class.pxrInternal_v0_24__pxrReserved__::GfMatrix4f", ptr %106, i32 0, i32 0
  %108 = call noundef ptr @_ZNK32pxrInternal_v0_24__pxrReserved__12GfMatrixDataIfLi4ELi4EEixEi(ptr noundef nonnull align 4 dereferenceable(64) %107, i32 noundef 2)
  %109 = getelementptr inbounds float, ptr %108, i64 0
  %110 = load float, ptr %109, align 4
  %111 = fpext float %110 to double
  %112 = fcmp oeq double %105, %111
  br i1 %112, label %113, label %197

113:                                              ; preds = %101
  %114 = getelementptr inbounds nuw %"class.pxrInternal_v0_24__pxrReserved__::GfMatrix4d", ptr %5, i32 0, i32 0
  %115 = call noundef ptr @_ZNK32pxrInternal_v0_24__pxrReserved__12GfMatrixDataIdLi4ELi4EEixEi(ptr noundef nonnull align 8 dereferenceable(128) %114, i32 noundef 2)
  %116 = getelementptr inbounds double, ptr %115, i64 1
  %117 = load double, ptr %116, align 8
  %118 = load ptr, ptr %4, align 8
  %119 = getelementptr inbounds nuw %"class.pxrInternal_v0_24__pxrReserved__::GfMatrix4f", ptr %118, i32 0, i32 0
  %120 = call noundef ptr @_ZNK32pxrInternal_v0_24__pxrReserved__12GfMatrixDataIfLi4ELi4EEixEi(ptr noundef nonnull align 4 dereferenceable(64) %119, i32 noundef 2)
  %121 = getelementptr inbounds float, ptr %120, i64 1
  %122 = load float, ptr %121, align 4
  %123 = fpext float %122 to double
  %124 = fcmp oeq double %117, %123
  br i1 %124, label %125, label %197

125:                                              ; preds = %113
  %126 = getelementptr inbounds nuw %"class.pxrInternal_v0_24__pxrReserved__::GfMatrix4d", ptr %5, i32 0, i32 0
  %127 = call noundef ptr @_ZNK32pxrInternal_v0_24__pxrReserved__12GfMatrixDataIdLi4ELi4EEixEi(ptr noundef nonnull align 8 dereferenceable(128) %126, i32 noundef 2)
  %128 = getelementptr inbounds double, ptr %127, i64 2
  %129 = load double, ptr %128, align 8
  %130 = load ptr, ptr %4, align 8
  %131 = getelementptr inbounds nuw %"class.pxrInternal_v0_24__pxrReserved__::GfMatrix4f", ptr %130, i32 0, i32 0
  %132 = call noundef ptr @_ZNK32pxrInternal_v0_24__pxrReserved__12GfMatrixDataIfLi4ELi4EEixEi(ptr noundef nonnull align 4 dereferenceable(64) %131, i32 noundef 2)
  %133 = getelementptr inbounds float, ptr %132, i64 2
  %134 = load float, ptr %133, align 4
  %135 = fpext float %134 to double
  %136 = fcmp oeq double %129, %135
  br i1 %136, label %137, label %197

137:                                              ; preds = %125
  %138 = getelementptr inbounds nuw %"class.pxrInternal_v0_24__pxrReserved__::GfMatrix4d", ptr %5, i32 0, i32 0
  %139 = call noundef ptr @_ZNK32pxrInternal_v0_24__pxrReserved__12GfMatrixDataIdLi4ELi4EEixEi(ptr noundef nonnull align 8 dereferenceable(128) %138, i32 noundef 2)
  %140 = getelementptr inbounds double, ptr %139, i64 3
  %141 = load double, ptr %140, align 8
  %142 = load ptr, ptr %4, align 8
  %143 = getelementptr inbounds nuw %"class.pxrInternal_v0_24__pxrReserved__::GfMatrix4f", ptr %142, i32 0, i32 0
  %144 = call noundef ptr @_ZNK32pxrInternal_v0_24__pxrReserved__12GfMatrixDataIfLi4ELi4EEixEi(ptr noundef nonnull align 4 dereferenceable(64) %143, i32 noundef 2)
  %145 = getelementptr inbounds float, ptr %144, i64 3
  %146 = load float, ptr %145, align 4
  %147 = fpext float %146 to double
  %148 = fcmp oeq double %141, %147
  br i1 %148, label %149, label %197

149:                                              ; preds = %137
  %150 = getelementptr inbounds nuw %"class.pxrInternal_v0_24__pxrReserved__::GfMatrix4d", ptr %5, i32 0, i32 0
  %151 = call noundef ptr @_ZNK32pxrInternal_v0_24__pxrReserved__12GfMatrixDataIdLi4ELi4EEixEi(ptr noundef nonnull align 8 dereferenceable(128) %150, i32 noundef 3)
  %152 = getelementptr inbounds double, ptr %151, i64 0
  %153 = load double, ptr %152, align 8
  %154 = load ptr, ptr %4, align 8
  %155 = getelementptr inbounds nuw %"class.pxrInternal_v0_24__pxrReserved__::GfMatrix4f", ptr %154, i32 0, i32 0
  %156 = call noundef ptr @_ZNK32pxrInternal_v0_24__pxrReserved__12GfMatrixDataIfLi4ELi4EEixEi(ptr noundef nonnull align 4 dereferenceable(64) %155, i32 noundef 3)
  %157 = getelementptr inbounds float, ptr %156, i64 0
  %158 = load float, ptr %157, align 4
  %159 = fpext float %158 to double
  %160 = fcmp oeq double %153, %159
  br i1 %160, label %161, label %197

161:                                              ; preds = %149
  %162 = getelementptr inbounds nuw %"class.pxrInternal_v0_24__pxrReserved__::GfMatrix4d", ptr %5, i32 0, i32 0
  %163 = call noundef ptr @_ZNK32pxrInternal_v0_24__pxrReserved__12GfMatrixDataIdLi4ELi4EEixEi(ptr noundef nonnull align 8 dereferenceable(128) %162, i32 noundef 3)
  %164 = getelementptr inbounds double, ptr %163, i64 1
  %165 = load double, ptr %164, align 8
  %166 = load ptr, ptr %4, align 8
  %167 = getelementptr inbounds nuw %"class.pxrInternal_v0_24__pxrReserved__::GfMatrix4f", ptr %166, i32 0, i32 0
  %168 = call noundef ptr @_ZNK32pxrInternal_v0_24__pxrReserved__12GfMatrixDataIfLi4ELi4EEixEi(ptr noundef nonnull align 4 dereferenceable(64) %167, i32 noundef 3)
  %169 = getelementptr inbounds float, ptr %168, i64 1
  %170 = load float, ptr %169, align 4
  %171 = fpext float %170 to double
  %172 = fcmp oeq double %165, %171
  br i1 %172, label %173, label %197

173:                                              ; preds = %161
  %174 = getelementptr inbounds nuw %"class.pxrInternal_v0_24__pxrReserved__::GfMatrix4d", ptr %5, i32 0, i32 0
  %175 = call noundef ptr @_ZNK32pxrInternal_v0_24__pxrReserved__12GfMatrixDataIdLi4ELi4EEixEi(ptr noundef nonnull align 8 dereferenceable(128) %174, i32 noundef 3)
  %176 = getelementptr inbounds double, ptr %175, i64 2
  %177 = load double, ptr %176, align 8
  %178 = load ptr, ptr %4, align 8
  %179 = getelementptr inbounds nuw %"class.pxrInternal_v0_24__pxrReserved__::GfMatrix4f", ptr %178, i32 0, i32 0
  %180 = call noundef ptr @_ZNK32pxrInternal_v0_24__pxrReserved__12GfMatrixDataIfLi4ELi4EEixEi(ptr noundef nonnull align 4 dereferenceable(64) %179, i32 noundef 3)
  %181 = getelementptr inbounds float, ptr %180, i64 2
  %182 = load float, ptr %181, align 4
  %183 = fpext float %182 to double
  %184 = fcmp oeq double %177, %183
  br i1 %184, label %185, label %197

185:                                              ; preds = %173
  %186 = getelementptr inbounds nuw %"class.pxrInternal_v0_24__pxrReserved__::GfMatrix4d", ptr %5, i32 0, i32 0
  %187 = call noundef ptr @_ZNK32pxrInternal_v0_24__pxrReserved__12GfMatrixDataIdLi4ELi4EEixEi(ptr noundef nonnull align 8 dereferenceable(128) %186, i32 noundef 3)
  %188 = getelementptr inbounds double, ptr %187, i64 3
  %189 = load double, ptr %188, align 8
  %190 = load ptr, ptr %4, align 8
  %191 = getelementptr inbounds nuw %"class.pxrInternal_v0_24__pxrReserved__::GfMatrix4f", ptr %190, i32 0, i32 0
  %192 = call noundef ptr @_ZNK32pxrInternal_v0_24__pxrReserved__12GfMatrixDataIfLi4ELi4EEixEi(ptr noundef nonnull align 4 dereferenceable(64) %191, i32 noundef 3)
  %193 = getelementptr inbounds float, ptr %192, i64 3
  %194 = load float, ptr %193, align 4
  %195 = fpext float %194 to double
  %196 = fcmp oeq double %189, %195
  br label %197

197:                                              ; preds = %185, %173, %161, %149, %137, %125, %113, %101, %89, %77, %65, %53, %41, %29, %17, %2
  %198 = phi i1 [ false, %173 ], [ false, %161 ], [ false, %149 ], [ false, %137 ], [ false, %125 ], [ false, %113 ], [ false, %101 ], [ false, %89 ], [ false, %77 ], [ false, %65 ], [ false, %53 ], [ false, %41 ], [ false, %29 ], [ false, %17 ], [ false, %2 ], [ %196, %185 ]
  ret i1 %198
}