; Function Attrs: mustprogress nofree norecurse nosync nounwind willreturn memory(argmem: read) uwtable
define noundef zeroext i1 @_ZNK32pxrInternal_v0_24__pxrReserved__10GfMatrix4deqERKNS_10GfMatrix4fE(ptr nocapture noundef nonnull readonly align 8 dereferenceable(128) %0, ptr nocapture noundef nonnull readonly align 4 dereferenceable(64) %1) local_unnamed_addr #6 align 2 {
  %3 = load double, ptr %0, align 8
  %4 = load float, ptr %1, align 4
  %5 = fpext float %4 to double
  %6 = fcmp oeq double %3, %5
  br i1 %6, label %7, label %112

7:                                                ; preds = %2
  %8 = getelementptr inbounds i8, ptr %0, i64 8
  %9 = load double, ptr %8, align 8
  %10 = getelementptr inbounds i8, ptr %1, i64 4
  %11 = load float, ptr %10, align 4
  %12 = fpext float %11 to double
  %13 = fcmp oeq double %9, %12
  br i1 %13, label %14, label %112

14:                                               ; preds = %7
  %15 = getelementptr inbounds i8, ptr %0, i64 16
  %16 = load double, ptr %15, align 8
  %17 = getelementptr inbounds i8, ptr %1, i64 8
  %18 = load float, ptr %17, align 4
  %19 = fpext float %18 to double
  %20 = fcmp oeq double %16, %19
  br i1 %20, label %21, label %112

21:                                               ; preds = %14
  %22 = getelementptr inbounds i8, ptr %0, i64 24
  %23 = load double, ptr %22, align 8
  %24 = getelementptr inbounds i8, ptr %1, i64 12
  %25 = load float, ptr %24, align 4
  %26 = fpext float %25 to double
  %27 = fcmp oeq double %23, %26
  br i1 %27, label %28, label %112

28:                                               ; preds = %21
  %29 = getelementptr inbounds i8, ptr %0, i64 32
  %30 = load double, ptr %29, align 8
  %31 = getelementptr inbounds i8, ptr %1, i64 16
  %32 = load float, ptr %31, align 4
  %33 = fpext float %32 to double
  %34 = fcmp oeq double %30, %33
  br i1 %34, label %35, label %112

35:                                               ; preds = %28
  %36 = getelementptr inbounds i8, ptr %0, i64 40
  %37 = load double, ptr %36, align 8
  %38 = getelementptr inbounds i8, ptr %1, i64 20
  %39 = load float, ptr %38, align 4
  %40 = fpext float %39 to double
  %41 = fcmp oeq double %37, %40
  br i1 %41, label %42, label %112

42:                                               ; preds = %35
  %43 = getelementptr inbounds i8, ptr %0, i64 48
  %44 = load double, ptr %43, align 8
  %45 = getelementptr inbounds i8, ptr %1, i64 24
  %46 = load float, ptr %45, align 4
  %47 = fpext float %46 to double
  %48 = fcmp oeq double %44, %47
  br i1 %48, label %49, label %112

49:                                               ; preds = %42
  %50 = getelementptr inbounds i8, ptr %0, i64 56
  %51 = load double, ptr %50, align 8
  %52 = getelementptr inbounds i8, ptr %1, i64 28
  %53 = load float, ptr %52, align 4
  %54 = fpext float %53 to double
  %55 = fcmp oeq double %51, %54
  br i1 %55, label %56, label %112

56:                                               ; preds = %49
  %57 = getelementptr inbounds i8, ptr %0, i64 64
  %58 = load double, ptr %57, align 8
  %59 = getelementptr inbounds i8, ptr %1, i64 32
  %60 = load float, ptr %59, align 4
  %61 = fpext float %60 to double
  %62 = fcmp oeq double %58, %61
  br i1 %62, label %63, label %112

63:                                               ; preds = %56
  %64 = getelementptr inbounds i8, ptr %0, i64 72
  %65 = load double, ptr %64, align 8
  %66 = getelementptr inbounds i8, ptr %1, i64 36
  %67 = load float, ptr %66, align 4
  %68 = fpext float %67 to double
  %69 = fcmp oeq double %65, %68
  br i1 %69, label %70, label %112

70:                                               ; preds = %63
  %71 = getelementptr inbounds i8, ptr %0, i64 80
  %72 = load double, ptr %71, align 8
  %73 = getelementptr inbounds i8, ptr %1, i64 40
  %74 = load float, ptr %73, align 4
  %75 = fpext float %74 to double
  %76 = fcmp oeq double %72, %75
  br i1 %76, label %77, label %112

77:                                               ; preds = %70
  %78 = getelementptr inbounds i8, ptr %0, i64 88
  %79 = load double, ptr %78, align 8
  %80 = getelementptr inbounds i8, ptr %1, i64 44
  %81 = load float, ptr %80, align 4
  %82 = fpext float %81 to double
  %83 = fcmp oeq double %79, %82
  br i1 %83, label %84, label %112

84:                                               ; preds = %77
  %85 = getelementptr inbounds i8, ptr %0, i64 96
  %86 = load double, ptr %85, align 8
  %87 = getelementptr inbounds i8, ptr %1, i64 48
  %88 = load float, ptr %87, align 4
  %89 = fpext float %88 to double
  %90 = fcmp oeq double %86, %89
  br i1 %90, label %91, label %112

91:                                               ; preds = %84
  %92 = getelementptr inbounds i8, ptr %0, i64 104
  %93 = load double, ptr %92, align 8
  %94 = getelementptr inbounds i8, ptr %1, i64 52
  %95 = load float, ptr %94, align 4
  %96 = fpext float %95 to double
  %97 = fcmp oeq double %93, %96
  br i1 %97, label %98, label %112

98:                                               ; preds = %91
  %99 = getelementptr inbounds i8, ptr %0, i64 112
  %100 = load double, ptr %99, align 8
  %101 = getelementptr inbounds i8, ptr %1, i64 56
  %102 = load float, ptr %101, align 4
  %103 = fpext float %102 to double
  %104 = fcmp oeq double %100, %103
  br i1 %104, label %105, label %112

105:                                              ; preds = %98
  %106 = getelementptr inbounds i8, ptr %0, i64 120
  %107 = load double, ptr %106, align 8
  %108 = getelementptr inbounds i8, ptr %1, i64 60
  %109 = load float, ptr %108, align 4
  %110 = fpext float %109 to double
  %111 = fcmp oeq double %107, %110
  br label %112

112:                                              ; preds = %105, %98, %91, %84, %77, %70, %63, %56, %49, %42, %35, %28, %21, %14, %7, %2
  %113 = phi i1 [ false, %98 ], [ false, %91 ], [ false, %84 ], [ false, %77 ], [ false, %70 ], [ false, %63 ], [ false, %56 ], [ false, %49 ], [ false, %42 ], [ false, %35 ], [ false, %28 ], [ false, %21 ], [ false, %14 ], [ false, %7 ], [ false, %2 ], [ %111, %105 ]
  ret i1 %113
}